target datalayout = "e-m:e-p270:32:32-p271:32:32-p272:64:64-i64:64-i128:128-f80:128-n8:16:32:64-S128"
target triple = "x86_64-pc-linux-gnu"

; Function Attrs: nounwind uwtable
define hidden ptr @lexbor_str_data_ncasecmp_first(ptr noundef %0, ptr noundef %1, i64 noundef %2) #0 {
  %4 = alloca ptr, align 8
  %5 = alloca ptr, align 8
  %6 = alloca ptr, align 8
  %7 = alloca i64, align 8
  %8 = alloca i64, align 8
  store ptr %0, ptr %5, align 8
  store ptr %1, ptr %6, align 8
  store i64 %2, ptr %7, align 8
  store i64 0, ptr %8, align 8
  br label %9

9:                                                ; preds = %44, %3
  %10 = load i64, ptr %8, align 8
  %11 = load i64, ptr %7, align 8
  %12 = icmp ult i64 %10, %11
  br i1 %12, label %13, label %47

13:                                               ; preds = %9
  %14 = load ptr, ptr %5, align 8
  %15 = load i64, ptr %8, align 8
  %16 = getelementptr inbounds i8, ptr %14, i64 %15
  %17 = load i8, ptr %16, align 1
  %18 = zext i8 %17 to i32
  %19 = icmp eq i32 %18, 0
  br i1 %19, label %20, label %24

20:                                               ; preds = %13
  %21 = load ptr, ptr %5, align 8
  %22 = load i64, ptr %8, align 8
  %23 = getelementptr inbounds i8, ptr %21, i64 %22
  store ptr %23, ptr %4, align 8
  br label %51

24:                                               ; preds = %13
  %25 = load ptr, ptr %5, align 8
  %26 = load i64, ptr %8, align 8
  %27 = getelementptr inbounds i8, ptr %25, i64 %26
  %28 = load i8, ptr %27, align 1
  %29 = zext i8 %28 to i64
  %30 = getelementptr inbounds [256 x i8], ptr @lexbor_str_res_map_lowercase, i64 0, i64 %29
  %31 = load i8, ptr %30, align 1
  %32 = zext i8 %31 to i32
  %33 = load ptr, ptr %6, align 8
  %34 = load i64, ptr %8, align 8
  %35 = getelementptr inbounds i8, ptr %33, i64 %34
  %36 = load i8, ptr %35, align 1
  %37 = zext i8 %36 to i64
  %38 = getelementptr inbounds [256 x i8], ptr @lexbor_str_res_map_lowercase, i64 0, i64 %37
  %39 = load i8, ptr %38, align 1
  %40 = zext i8 %39 to i32
  %41 = icmp ne i32 %32, %40
  br i1 %41, label %42, label %43

42:                                               ; preds = %24
  store ptr null, ptr %4, align 8
  br label %51

43:                                               ; preds = %24
  br label %44

44:                                               ; preds = %43
  %45 = load i64, ptr %8, align 8
  %46 = add i64 %45, 1
  store i64 %46, ptr %8, align 8
  br label %9

47:                                               ; preds = %9
  %48 = load ptr, ptr %5, align 8
  %49 = load i64, ptr %8, align 8
  %50 = getelementptr inbounds i8, ptr %48, i64 %49
  store ptr %50, ptr %4, align 8
  br label %51

51:                                               ; preds = %47, %42, %20
  %52 = load ptr, ptr %4, align 8
  ret ptr %52
}