; Function Attrs: nofree norecurse nosync nounwind memory(argmem: read) uwtable
define hidden ptr @lexbor_str_data_ncasecmp_first(ptr noundef readonly %0, ptr nocapture noundef readonly %1, i64 noundef %2) local_unnamed_addr #8 {
  %.not19 = icmp eq i64 %2, 0
  br i1 %.not19, label %._crit_edge, label %.lr.ph

.lr.ph:                                           ; preds = %3, %16
  %.018 = phi i64 [ %17, %16 ], [ 0, %3 ]
  %4 = getelementptr inbounds i8, ptr %0, i64 %.018
  %5 = load i8, ptr %4, align 1
  %6 = icmp eq i8 %5, 0
  br i1 %6, label %.loopexit.loopexit.split.loop.exit, label %7

7:                                                ; preds = %.lr.ph
  %8 = zext i8 %5 to i64
  %9 = getelementptr inbounds [256 x i8], ptr @lexbor_str_res_map_lowercase, i64 0, i64 %8
  %10 = load i8, ptr %9, align 1
  %11 = getelementptr inbounds i8, ptr %1, i64 %.018
  %12 = load i8, ptr %11, align 1
  %13 = zext i8 %12 to i64
  %14 = getelementptr inbounds [256 x i8], ptr @lexbor_str_res_map_lowercase, i64 0, i64 %13
  %15 = load i8, ptr %14, align 1
  %.not = icmp eq i8 %10, %15
  br i1 %.not, label %16, label %.loopexit

16:                                               ; preds = %7
  %17 = add nuw i64 %.018, 1
  %exitcond.not = icmp eq i64 %17, %2
  br i1 %exitcond.not, label %._crit_edge, label %.lr.ph

._crit_edge:                                      ; preds = %16, %3
  %18 = getelementptr inbounds i8, ptr %0, i64 %2
  br label %.loopexit

.loopexit.loopexit.split.loop.exit:               ; preds = %.lr.ph
  %19 = getelementptr inbounds i8, ptr %0, i64 %.018
  br label %.loopexit

.loopexit:                                        ; preds = %7, %.loopexit.loopexit.split.loop.exit, %._crit_edge
  %.013 = phi ptr [ %18, %._crit_edge ], [ %19, %.loopexit.loopexit.split.loop.exit ], [ null, %7 ]
  ret ptr %.013
}